target datalayout = "e-m:e-p270:32:32-p271:32:32-p272:64:64-i64:64-i128:128-f80:128-n8:16:32:64-S128"
target triple = "x86_64-pc-linux-gnu"

; Function Attrs: mustprogress nounwind uwtable
define internal noundef i32 @_ZL13LZ4_isAlignedPKvm(ptr noundef %0, i64 noundef %1) #0 {
  %3 = alloca ptr, align 8
  %4 = alloca i64, align 8
  store ptr %0, ptr %3, align 8, !tbaa !10
  store i64 %1, ptr %4, align 8, !tbaa !18
  %5 = load ptr, ptr %3, align 8, !tbaa !10
  %6 = ptrtoint ptr %5 to i64
  %7 = load i64, ptr %4, align 8, !tbaa !18
  %8 = sub i64 %7, 1
  %9 = and i64 %6, %8
  %10 = icmp eq i64 %9, 0
  %11 = zext i1 %10 to i32
  ret i32 %11
}

; Function Attrs: mustprogress nounwind uwtable
define internal noundef i64 @_ZL22LZ4_stream_t_alignmentv() #0 {
  ret i64 8
}

; Function Attrs: mustprogress uwtable
define ptr @LZ4_initStream(ptr noundef %0, i64 noundef %1) #1 {
  %3 = alloca ptr, align 8
  %4 = alloca ptr, align 8
  %5 = alloca i64, align 8
  store ptr %0, ptr %4, align 8, !tbaa !10
  store i64 %1, ptr %5, align 8, !tbaa !18
  %6 = load ptr, ptr %4, align 8, !tbaa !10
  %7 = icmp eq ptr %6, null
  br i1 %7, label %8, label %9

8:                                                ; preds = %2
  store ptr null, ptr %3, align 8
  br label %22

9:                                                ; preds = %2
  %10 = load i64, ptr %5, align 8, !tbaa !18
  %11 = icmp ult i64 %10, 16416
  br i1 %11, label %12, label %13

12:                                               ; preds = %9
  store ptr null, ptr %3, align 8
  br label %22

13:                                               ; preds = %9
  %14 = load ptr, ptr %4, align 8, !tbaa !10
  %15 = call noundef i64 @_ZL22LZ4_stream_t_alignmentv()
  %16 = call noundef i32 @_ZL13LZ4_isAlignedPKvm(ptr noundef %14, i64 noundef %15)
  %17 = icmp ne i32 %16, 0
  br i1 %17, label %19, label %18

18:                                               ; preds = %13
  store ptr null, ptr %3, align 8
  br label %22

19:                                               ; preds = %13
  %20 = load ptr, ptr %4, align 8, !tbaa !10
  call void @llvm.memset.p0.i64(ptr align 1 %20, i8 0, i64 16416, i1 false)
  %21 = load ptr, ptr %4, align 8, !tbaa !10
  store ptr %21, ptr %3, align 8
  br label %22

22:                                               ; preds = %19, %18, %12, %8
  %23 = load ptr, ptr %3, align 8
  ret ptr %23
}

; Function Attrs: mustprogress uwtable
define i32 @LZ4_compress_destSize_extState(ptr noundef %0, ptr noundef %1, ptr noundef %2, ptr noundef %3, i32 noundef %4, i32 noundef %5) #1 {
  %7 = alloca ptr, align 8
  %8 = alloca ptr, align 8
  %9 = alloca ptr, align 8
  %10 = alloca ptr, align 8
  %11 = alloca i32, align 4
  %12 = alloca i32, align 4
  %13 = alloca i32, align 4
  store ptr %0, ptr %7, align 8, !tbaa !10
  store ptr %1, ptr %8, align 8, !tbaa !12
  store ptr %2, ptr %9, align 8, !tbaa !12
  store ptr %3, ptr %10, align 8, !tbaa !20
  store i32 %4, ptr %11, align 4, !tbaa !6
  store i32 %5, ptr %12, align 4, !tbaa !6
  call void @llvm.lifetime.start.p0(i64 4, ptr %13) #12
  %14 = load ptr, ptr %7, align 8, !tbaa !10
  %15 = load ptr, ptr %8, align 8, !tbaa !12
  %16 = load ptr, ptr %9, align 8, !tbaa !12
  %17 = load ptr, ptr %10, align 8, !tbaa !20
  %18 = load i32, ptr %11, align 4, !tbaa !6
  %19 = load i32, ptr %12, align 4, !tbaa !6
  %20 = call noundef i32 @_ZL39LZ4_compress_destSize_extState_internalP12LZ4_stream_uPKcPcPiii(ptr noundef %14, ptr noundef %15, ptr noundef %16, ptr noundef %17, i32 noundef %18, i32 noundef %19)
  store i32 %20, ptr %13, align 4, !tbaa !6
  %21 = load ptr, ptr %7, align 8, !tbaa !10
  %22 = call ptr @LZ4_initStream(ptr noundef %21, i64 noundef 16416)
  %23 = load i32, ptr %13, align 4, !tbaa !6
  call void @llvm.lifetime.end.p0(i64 4, ptr %13) #12
  ret i32 %23
}